target datalayout = "e-m:e-p270:32:32-p271:32:32-p272:64:64-i64:64-i128:128-f80:128-n8:16:32:64-S128"
target triple = "x86_64-pc-linux-gnu"

; Function Attrs: nounwind uwtable
define i32 @Base64_SkipNewline(ptr noundef %0, ptr noundef %1, ptr noundef %2) #0 {
  %4 = alloca i32, align 4
  %5 = alloca ptr, align 8
  %6 = alloca ptr, align 8
  %7 = alloca ptr, align 8
  %8 = alloca i32, align 4
  %9 = alloca i32, align 4
  %10 = alloca i8, align 1
  %11 = alloca i32, align 4
  store ptr %0, ptr %5, align 8, !tbaa !3
  store ptr %1, ptr %6, align 8, !tbaa !8
  store ptr %2, ptr %7, align 8, !tbaa !8
  call void @llvm.lifetime.start.p0(i64 4, ptr %8) #3
  %12 = load ptr, ptr %6, align 8, !tbaa !8
  %13 = load i32, ptr %12, align 4, !tbaa !10
  store i32 %13, ptr %8, align 4, !tbaa !10
  call void @llvm.lifetime.start.p0(i64 4, ptr %9) #3
  %14 = load ptr, ptr %7, align 8, !tbaa !8
  %15 = load i32, ptr %14, align 4, !tbaa !10
  store i32 %15, ptr %9, align 4, !tbaa !10
  call void @llvm.lifetime.start.p0(i64 1, ptr %10) #3
  %16 = load i32, ptr %8, align 4, !tbaa !10
  %17 = icmp eq i32 %16, 0
  br i1 %17, label %18, label %19

18:                                               ; preds = %3
  store i32 -132, ptr %4, align 4
  store i32 1, ptr %11, align 4
  br label %124

19:                                               ; preds = %3
  %20 = load ptr, ptr %5, align 8, !tbaa !3
  %21 = load i32, ptr %9, align 4, !tbaa !10
  %22 = zext i32 %21 to i64
  %23 = getelementptr inbounds nuw i8, ptr %20, i64 %22
  %24 = load i8, ptr %23, align 1, !tbaa !12
  store i8 %24, ptr %10, align 1, !tbaa !12
  br label %25

25:                                               ; preds = %34, %19
  %26 = load i32, ptr %8, align 4, !tbaa !10
  %27 = icmp ugt i32 %26, 1
  br i1 %27, label %28, label %32

28:                                               ; preds = %25
  %29 = load i8, ptr %10, align 1, !tbaa !12
  %30 = zext i8 %29 to i32
  %31 = icmp eq i32 %30, 32
  br label %32

32:                                               ; preds = %28, %25
  %33 = phi i1 [ false, %25 ], [ %31, %28 ]
  br i1 %33, label %34, label %43

34:                                               ; preds = %32
  %35 = load ptr, ptr %5, align 8, !tbaa !3
  %36 = load i32, ptr %9, align 4, !tbaa !10
  %37 = add i32 %36, 1
  store i32 %37, ptr %9, align 4, !tbaa !10
  %38 = zext i32 %37 to i64
  %39 = getelementptr inbounds nuw i8, ptr %35, i64 %38
  %40 = load i8, ptr %39, align 1, !tbaa !12
  store i8 %40, ptr %10, align 1, !tbaa !12
  %41 = load i32, ptr %8, align 4, !tbaa !10
  %42 = add i32 %41, -1
  store i32 %42, ptr %8, align 4, !tbaa !10
  br label %25, !llvm.loop !13

43:                                               ; preds = %32
  %44 = load i32, ptr %8, align 4, !tbaa !10
  %45 = icmp ne i32 %44, 0
  br i1 %45, label %46, label %93

46:                                               ; preds = %43
  %47 = load i8, ptr %10, align 1, !tbaa !12
  %48 = zext i8 %47 to i32
  %49 = icmp eq i32 %48, 13
  br i1 %49, label %54, label %50

50:                                               ; preds = %46
  %51 = load i8, ptr %10, align 1, !tbaa !12
  %52 = zext i8 %51 to i32
  %53 = icmp eq i32 %52, 10
  br i1 %53, label %54, label %93

54:                                               ; preds = %50, %46
  %55 = load i32, ptr %9, align 4, !tbaa !10
  %56 = add i32 %55, 1
  store i32 %56, ptr %9, align 4, !tbaa !10
  %57 = load i32, ptr %8, align 4, !tbaa !10
  %58 = add i32 %57, -1
  store i32 %58, ptr %8, align 4, !tbaa !10
  %59 = load i8, ptr %10, align 1, !tbaa !12
  %60 = zext i8 %59 to i32
  %61 = icmp eq i32 %60, 13
  br i1 %61, label %62, label %75

62:                                               ; preds = %54
  %63 = load i32, ptr %8, align 4, !tbaa !10
  %64 = icmp ne i32 %63, 0
  br i1 %64, label %65, label %74

65:                                               ; preds = %62
  %66 = load ptr, ptr %5, align 8, !tbaa !3
  %67 = load i32, ptr %9, align 4, !tbaa !10
  %68 = add i32 %67, 1
  store i32 %68, ptr %9, align 4, !tbaa !10
  %69 = zext i32 %67 to i64
  %70 = getelementptr inbounds nuw i8, ptr %66, i64 %69
  %71 = load i8, ptr %70, align 1, !tbaa !12
  store i8 %71, ptr %10, align 1, !tbaa !12
  %72 = load i32, ptr %8, align 4, !tbaa !10
  %73 = add i32 %72, -1
  store i32 %73, ptr %8, align 4, !tbaa !10
  br label %74

74:                                               ; preds = %65, %62
  br label %75

75:                                               ; preds = %74, %54
  %76 = load i8, ptr %10, align 1, !tbaa !12
  %77 = zext i8 %76 to i32
  %78 = icmp ne i32 %77, 10
  br i1 %78, label %79, label %83

79:                                               ; preds = %75
  br label %80

80:                                               ; preds = %79
  br label %81

81:                                               ; preds = %80
  br label %82

82:                                               ; preds = %81
  store i32 -154, ptr %4, align 4
  store i32 1, ptr %11, align 4
  br label %124

83:                                               ; preds = %75
  %84 = load i32, ptr %8, align 4, !tbaa !10
  %85 = icmp ne i32 %84, 0
  br i1 %85, label %86, label %92

86:                                               ; preds = %83
  %87 = load ptr, ptr %5, align 8, !tbaa !3
  %88 = load i32, ptr %9, align 4, !tbaa !10
  %89 = zext i32 %88 to i64
  %90 = getelementptr inbounds nuw i8, ptr %87, i64 %89
  %91 = load i8, ptr %90, align 1, !tbaa !12
  store i8 %91, ptr %10, align 1, !tbaa !12
  br label %92

92:                                               ; preds = %86, %83
  br label %93

93:                                               ; preds = %92, %50, %43
  br label %94

94:                                               ; preds = %114, %93
  %95 = load i32, ptr %8, align 4, !tbaa !10
  %96 = icmp ne i32 %95, 0
  br i1 %96, label %97, label %101

97:                                               ; preds = %94
  %98 = load i8, ptr %10, align 1, !tbaa !12
  %99 = zext i8 %98 to i32
  %100 = icmp eq i32 %99, 32
  br label %101

101:                                              ; preds = %97, %94
  %102 = phi i1 [ false, %94 ], [ %100, %97 ]
  br i1 %102, label %103, label %115

103:                                              ; preds = %101
  %104 = load i32, ptr %8, align 4, !tbaa !10
  %105 = add i32 %104, -1
  store i32 %105, ptr %8, align 4, !tbaa !10
  %106 = icmp ugt i32 %105, 0
  br i1 %106, label %107, label %114

107:                                              ; preds = %103
  %108 = load ptr, ptr %5, align 8, !tbaa !3
  %109 = load i32, ptr %9, align 4, !tbaa !10
  %110 = add i32 %109, 1
  store i32 %110, ptr %9, align 4, !tbaa !10
  %111 = zext i32 %110 to i64
  %112 = getelementptr inbounds nuw i8, ptr %108, i64 %111
  %113 = load i8, ptr %112, align 1, !tbaa !12
  store i8 %113, ptr %10, align 1, !tbaa !12
  br label %114

114:                                              ; preds = %107, %103
  br label %94, !llvm.loop !15

115:                                              ; preds = %101
  %116 = load i32, ptr %8, align 4, !tbaa !10
  %117 = icmp ne i32 %116, 0
  br i1 %117, label %119, label %118

118:                                              ; preds = %115
  store i32 -132, ptr %4, align 4
  store i32 1, ptr %11, align 4
  br label %124

119:                                              ; preds = %115
  %120 = load i32, ptr %8, align 4, !tbaa !10
  %121 = load ptr, ptr %6, align 8, !tbaa !8
  store i32 %120, ptr %121, align 4, !tbaa !10
  %122 = load i32, ptr %9, align 4, !tbaa !10
  %123 = load ptr, ptr %7, align 8, !tbaa !8
  store i32 %122, ptr %123, align 4, !tbaa !10
  store i32 0, ptr %4, align 4
  store i32 1, ptr %11, align 4
  br label %124

124:                                              ; preds = %119, %118, %82, %18
  call void @llvm.lifetime.end.p0(i64 1, ptr %10) #3
  call void @llvm.lifetime.end.p0(i64 4, ptr %9) #3
  call void @llvm.lifetime.end.p0(i64 4, ptr %8) #3
  %125 = load i32, ptr %4, align 4
  ret i32 %125
}