; Function Attrs: nofree norecurse nosync nounwind memory(argmem: readwrite) uwtable
define range(i32 -154, 1) i32 @Base64_SkipNewline(ptr noundef readonly captures(none) %0, ptr noundef captures(none) %1, ptr noundef captures(none) %2) local_unnamed_addr #0 {
  %4 = load i32, ptr %1, align 4, !tbaa !3
  %5 = icmp eq i32 %4, 0
  br i1 %5, label %._crit_edge63.thread, label %6

6:                                                ; preds = %3
  %7 = load i32, ptr %2, align 4, !tbaa !3
  %.pn52 = zext i32 %7 to i64
  %.0.in53 = getelementptr inbounds nuw i8, ptr %0, i64 %.pn52
  %.054 = load i8, ptr %.0.in53, align 1, !tbaa !7
  %8 = icmp ne i32 %4, 1
  %9 = icmp eq i8 %.054, 32
  %10 = select i1 %8, i1 %9, i1 false
  br i1 %10, label %.lr.ph, label %._crit_edge

.lr.ph:                                           ; preds = %6, %.lr.ph
  %.03856 = phi i32 [ %11, %.lr.ph ], [ %7, %6 ]
  %.04355 = phi i32 [ %12, %.lr.ph ], [ %4, %6 ]
  %11 = add i32 %.03856, 1
  %12 = add i32 %.04355, -1
  %.pn = zext i32 %11 to i64
  %.0.in = getelementptr inbounds nuw i8, ptr %0, i64 %.pn
  %.0 = load i8, ptr %.0.in, align 1, !tbaa !7
  %13 = icmp ugt i32 %12, 1
  %14 = icmp eq i8 %.0, 32
  %15 = select i1 %13, i1 %14, i1 false
  br i1 %15, label %.lr.ph, label %._crit_edge, !llvm.loop !8

._crit_edge:                                      ; preds = %.lr.ph, %6
  %.043.lcssa = phi i32 [ %4, %6 ], [ %12, %.lr.ph ]
  %.038.lcssa = phi i32 [ %7, %6 ], [ %11, %.lr.ph ]
  %.0.lcssa = phi i8 [ %.054, %6 ], [ %.0, %.lr.ph ]
  switch i8 %.0.lcssa, label %33 [
    i8 13, label %16
    i8 10, label %16
  ]

16:                                               ; preds = %._crit_edge, %._crit_edge
  %17 = icmp eq i8 %.0.lcssa, 13
  %18 = add i32 %.038.lcssa, 1
  %19 = add i32 %.043.lcssa, -1
  %20 = icmp ne i32 %19, 0
  %or.cond4 = and i1 %20, %17
  br i1 %or.cond4, label %21, label %27

21:                                               ; preds = %16
  %22 = add i32 %.038.lcssa, 2
  %23 = zext i32 %18 to i64
  %24 = getelementptr inbounds nuw i8, ptr %0, i64 %23
  %25 = load i8, ptr %24, align 1, !tbaa !7
  %26 = add i32 %.043.lcssa, -2
  br label %27

27:                                               ; preds = %21, %16
  %.245 = phi i32 [ %26, %21 ], [ %19, %16 ]
  %.240 = phi i32 [ %22, %21 ], [ %18, %16 ]
  %.2 = phi i8 [ %25, %21 ], [ %.0.lcssa, %16 ]
  %.not = icmp eq i8 %.2, 10
  br i1 %.not, label %28, label %._crit_edge63.thread

28:                                               ; preds = %27
  %.not50 = icmp eq i32 %.245, 0
  br i1 %.not50, label %._crit_edge63.thread, label %29

29:                                               ; preds = %28
  %30 = zext i32 %.240 to i64
  %31 = getelementptr inbounds nuw i8, ptr %0, i64 %30
  %32 = load i8, ptr %31, align 1, !tbaa !7
  br label %33

33:                                               ; preds = %._crit_edge, %29
  %.144 = phi i32 [ %.245, %29 ], [ %.043.lcssa, %._crit_edge ]
  %.139 = phi i32 [ %.240, %29 ], [ %.038.lcssa, %._crit_edge ]
  %.1 = phi i8 [ %32, %29 ], [ %.0.lcssa, %._crit_edge ]
  %34 = icmp eq i8 %.1, 32
  br i1 %34, label %.lr.ph62, label %._crit_edge63

.lr.ph62:                                         ; preds = %33, %36
  %.34160 = phi i32 [ %37, %36 ], [ %.139, %33 ]
  %.34659 = phi i32 [ %35, %36 ], [ %.144, %33 ]
  %35 = add i32 %.34659, -1
  %.not51 = icmp eq i32 %35, 0
  br i1 %.not51, label %._crit_edge63.thread, label %36

36:                                               ; preds = %.lr.ph62
  %37 = add i32 %.34160, 1
  %38 = zext i32 %37 to i64
  %39 = getelementptr inbounds nuw i8, ptr %0, i64 %38
  %40 = load i8, ptr %39, align 1, !tbaa !7
  %41 = icmp eq i8 %40, 32
  br i1 %41, label %.lr.ph62, label %._crit_edge63, !llvm.loop !10

._crit_edge63:                                    ; preds = %36, %33
  %.346.lcssa = phi i32 [ %.144, %33 ], [ %35, %36 ]
  %.341.lcssa = phi i32 [ %.139, %33 ], [ %37, %36 ]
  store i32 %.346.lcssa, ptr %1, align 4, !tbaa !3
  store i32 %.341.lcssa, ptr %2, align 4, !tbaa !3
  br label %._crit_edge63.thread

._crit_edge63.thread:                             ; preds = %.lr.ph62, %28, %27, %3, %._crit_edge63
  %.047 = phi i32 [ 0, %._crit_edge63 ], [ -132, %3 ], [ -154, %27 ], [ -132, %28 ], [ -132, %.lr.ph62 ]
  ret i32 %.047
}